target datalayout = "e-m:e-p270:32:32-p271:32:32-p272:64:64-i64:64-i128:128-f80:128-n8:16:32:64-S128"
target triple = "x86_64-pc-linux-gnu"

%struct.lib_blkoutstream_s = type { %struct.lib_outstream_s, ptr, %struct.geometry, ptr }
%struct.lib_outstream_s = type { i32, ptr, ptr, ptr }
%struct.geometry = type { i8, i8, i8, i32, i16, [33 x i8] }

; Function Attrs: nounwind uwtable
define void @lib_blkoutstream_close(ptr noundef %0) #0 {
  %2 = alloca ptr, align 8
  store ptr %0, ptr %2, align 8
  %3 = load ptr, ptr %2, align 8
  %4 = icmp ne ptr %3, null
  br i1 %4, label %5, label %29

5:                                                ; preds = %1
  %6 = load ptr, ptr %2, align 8
  %7 = getelementptr inbounds %struct.lib_blkoutstream_s, ptr %6, i32 0, i32 1
  %8 = load ptr, ptr %7, align 8
  %9 = icmp ne ptr %8, null
  br i1 %9, label %10, label %17

10:                                               ; preds = %5
  %11 = load ptr, ptr %2, align 8
  %12 = getelementptr inbounds %struct.lib_blkoutstream_s, ptr %11, i32 0, i32 1
  %13 = load ptr, ptr %12, align 8
  %14 = call i32 @close_blockdriver(ptr noundef %13)
  %15 = load ptr, ptr %2, align 8
  %16 = getelementptr inbounds %struct.lib_blkoutstream_s, ptr %15, i32 0, i32 1
  store ptr null, ptr %16, align 8
  br label %17

17:                                               ; preds = %10, %5
  %18 = load ptr, ptr %2, align 8
  %19 = getelementptr inbounds %struct.lib_blkoutstream_s, ptr %18, i32 0, i32 3
  %20 = load ptr, ptr %19, align 8
  %21 = icmp ne ptr %20, null
  br i1 %21, label %22, label %28

22:                                               ; preds = %17
  %23 = load ptr, ptr %2, align 8
  %24 = getelementptr inbounds %struct.lib_blkoutstream_s, ptr %23, i32 0, i32 3
  %25 = load ptr, ptr %24, align 8
  call void @free(ptr noundef %25)
  %26 = load ptr, ptr %2, align 8
  %27 = getelementptr inbounds %struct.lib_blkoutstream_s, ptr %26, i32 0, i32 3
  store ptr null, ptr %27, align 8
  br label %28

28:                                               ; preds = %22, %17
  br label %29

29:                                               ; preds = %28, %1
  ret void
}