; Function Attrs: nounwind uwtable
define void @lib_blkoutstream_close(ptr noundef %0) local_unnamed_addr #0 {
  %.not = icmp eq ptr %0, null
  br i1 %.not, label %11, label %2

2:                                                ; preds = %1
  %3 = getelementptr inbounds nuw i8, ptr %0, i64 32
  %4 = load ptr, ptr %3, align 8
  %.not9 = icmp eq ptr %4, null
  br i1 %.not9, label %7, label %5

5:                                                ; preds = %2
  %6 = tail call i32 @close_blockdriver(ptr noundef nonnull %4) #6
  store ptr null, ptr %3, align 8
  br label %7

7:                                                ; preds = %5, %2
  %8 = getelementptr inbounds nuw i8, ptr %0, i64 88
  %9 = load ptr, ptr %8, align 8
  %.not10 = icmp eq ptr %9, null
  br i1 %.not10, label %11, label %10

10:                                               ; preds = %7
  tail call void @free(ptr noundef nonnull %9)
  store ptr null, ptr %8, align 8
  br label %11

11:                                               ; preds = %7, %10, %1
  ret void
}